target datalayout = "e-m:e-p270:32:32-p271:32:32-p272:64:64-i64:64-i128:128-f80:128-n8:16:32:64-S128"
target triple = "x86_64-pc-linux-gnu"

%struct.H5O_token_t = type { [16 x i8] }
%struct.H5O_info2_t = type { i64, %struct.H5O_token_t, i32, i32, i64, i64, i64, i64, i64 }
%struct.h5tool_link_info_t = type { i32, ptr, %struct.H5O_token_t, i64, %struct.H5L_info2_t, %struct.h5tool_opt_t }
%struct.H5L_info2_t = type { i32, i8, i64, i32, %union.anon }
%union.anon = type { i64, [8 x i8] }
%struct.h5tool_opt_t = type { i32, i32 }

@.str.12 = private unnamed_addr constant [2 x i8] c"/\00", align 1
@.str.14 = private unnamed_addr constant [35 x i8] c"Warning: link <%s> doesn't exist \0A\00", align 1
@.str.15 = private unnamed_addr constant [44 x i8] c"Warning: unable to get link info from <%s>\0A\00", align 1
@.str.16 = private unnamed_addr constant [45 x i8] c"Warning: unable to allocate buffer for <%s>\0A\00", align 1
@.str.17 = private unnamed_addr constant [45 x i8] c"Warning: unable to get link value from <%s>\0A\00", align 1
@H5P_CLS_FILE_ACCESS_ID_g = external global i64, align 8
@H5P_CLS_LINK_ACCESS_ID_g = external global i64, align 8
@.str.18 = private unnamed_addr constant [52 x i8] c"Warning: unable to get object information for <%s>\0A\00", align 1
@.str.19 = private unnamed_addr constant [48 x i8] c"Warning: target object of <%s> is unknown type\0A\00", align 1

; Function Attrs: nounwind uwtable
define i32 @H5tools_get_symlink_info(i64 noundef %0, ptr noundef %1, ptr noundef %2, i1 noundef zeroext %3) #0 {
  %5 = alloca i64, align 8
  %6 = alloca ptr, align 8
  %7 = alloca ptr, align 8
  %8 = alloca i8, align 1
  %9 = alloca i32, align 4
  %10 = alloca %struct.H5O_info2_t, align 8
  %11 = alloca i64, align 8
  %12 = alloca i64, align 8
  %13 = alloca i32, align 4
  store i64 %0, ptr %5, align 8
  store ptr %1, ptr %6, align 8
  store ptr %2, ptr %7, align 8
  %14 = zext i1 %3 to i8
  store i8 %14, ptr %8, align 1
  store i64 0, ptr %11, align 8
  store i64 0, ptr %12, align 8
  store i32 -1, ptr %13, align 4
  %15 = load ptr, ptr %7, align 8
  %16 = getelementptr inbounds %struct.h5tool_link_info_t, ptr %15, i32 0, i32 0
  store i32 -1, ptr %16, align 8
  %17 = load ptr, ptr %6, align 8
  %18 = call i32 @strcmp(ptr noundef %17, ptr noundef @.str.12) #15
  %19 = icmp ne i32 %18, 0
  br i1 %19, label %25, label %20

20:                                               ; preds = %4
  %21 = load ptr, ptr %7, align 8
  %22 = getelementptr inbounds %struct.h5tool_link_info_t, ptr %21, i32 0, i32 0
  store i32 0, ptr %22, align 8
  br label %23

23:                                               ; preds = %20
  store i32 2, ptr %13, align 4
  br label %221

24:                                               ; No predecessors!
  br label %25

25:                                               ; preds = %24, %4
  %26 = load i64, ptr %5, align 8
  %27 = load ptr, ptr %6, align 8
  %28 = call i32 @H5Lexists(i64 noundef %26, ptr noundef %27, i64 noundef 0)
  %29 = icmp sle i32 %28, 0
  br i1 %29, label %30, label %41

30:                                               ; preds = %25
  %31 = load ptr, ptr %7, align 8
  %32 = getelementptr inbounds %struct.h5tool_link_info_t, ptr %31, i32 0, i32 5
  %33 = getelementptr inbounds %struct.h5tool_opt_t, ptr %32, i32 0, i32 1
  %34 = load i32, ptr %33, align 4
  %35 = icmp eq i32 %34, 1
  br i1 %35, label %36, label %38

36:                                               ; preds = %30
  %37 = load ptr, ptr %6, align 8
  call void (ptr, ...) @parallel_print(ptr noundef @.str.14, ptr noundef %37)
  br label %38

38:                                               ; preds = %36, %30
  br label %39

39:                                               ; preds = %38
  store i32 -1, ptr %13, align 4
  br label %221

40:                                               ; No predecessors!
  br label %41

41:                                               ; preds = %40, %25
  %42 = load i64, ptr %5, align 8
  %43 = load ptr, ptr %6, align 8
  %44 = load ptr, ptr %7, align 8
  %45 = getelementptr inbounds %struct.h5tool_link_info_t, ptr %44, i32 0, i32 4
  %46 = call i32 @H5Lget_info2(i64 noundef %42, ptr noundef %43, ptr noundef %45, i64 noundef 0)
  %47 = icmp slt i32 %46, 0
  br i1 %47, label %48, label %59

48:                                               ; preds = %41
  %49 = load ptr, ptr %7, align 8
  %50 = getelementptr inbounds %struct.h5tool_link_info_t, ptr %49, i32 0, i32 5
  %51 = getelementptr inbounds %struct.h5tool_opt_t, ptr %50, i32 0, i32 1
  %52 = load i32, ptr %51, align 4
  %53 = icmp eq i32 %52, 1
  br i1 %53, label %54, label %56

54:                                               ; preds = %48
  %55 = load ptr, ptr %6, align 8
  call void (ptr, ...) @parallel_print(ptr noundef @.str.15, ptr noundef %55)
  br label %56

56:                                               ; preds = %54, %48
  br label %57

57:                                               ; preds = %56
  store i32 -1, ptr %13, align 4
  br label %221

58:                                               ; No predecessors!
  br label %59

59:                                               ; preds = %58, %41
  %60 = load ptr, ptr %7, align 8
  %61 = getelementptr inbounds %struct.h5tool_link_info_t, ptr %60, i32 0, i32 4
  %62 = getelementptr inbounds %struct.H5L_info2_t, ptr %61, i32 0, i32 0
  %63 = load i32, ptr %62, align 8
  %64 = icmp eq i32 %63, 0
  br i1 %64, label %65, label %68

65:                                               ; preds = %59
  br label %66

66:                                               ; preds = %65
  store i32 2, ptr %13, align 4
  br label %221

67:                                               ; No predecessors!
  br label %68

68:                                               ; preds = %67, %59
  %69 = load ptr, ptr %7, align 8
  %70 = getelementptr inbounds %struct.h5tool_link_info_t, ptr %69, i32 0, i32 4
  %71 = getelementptr inbounds %struct.H5L_info2_t, ptr %70, i32 0, i32 4
  %72 = load i64, ptr %71, align 8
  %73 = call noalias ptr @calloc(i64 noundef %72, i64 noundef 1) #14
  %74 = load ptr, ptr %7, align 8
  %75 = getelementptr inbounds %struct.h5tool_link_info_t, ptr %74, i32 0, i32 1
  store ptr %73, ptr %75, align 8
  %76 = icmp eq ptr %73, null
  br i1 %76, label %77, label %88

77:                                               ; preds = %68
  %78 = load ptr, ptr %7, align 8
  %79 = getelementptr inbounds %struct.h5tool_link_info_t, ptr %78, i32 0, i32 5
  %80 = getelementptr inbounds %struct.h5tool_opt_t, ptr %79, i32 0, i32 1
  %81 = load i32, ptr %80, align 4
  %82 = icmp eq i32 %81, 1
  br i1 %82, label %83, label %85

83:                                               ; preds = %77
  %84 = load ptr, ptr %6, align 8
  call void (ptr, ...) @parallel_print(ptr noundef @.str.16, ptr noundef %84)
  br label %85

85:                                               ; preds = %83, %77
  br label %86

86:                                               ; preds = %85
  store i32 -1, ptr %13, align 4
  br label %221

87:                                               ; No predecessors!
  br label %88

88:                                               ; preds = %87, %68
  %89 = load i64, ptr %5, align 8
  %90 = load ptr, ptr %6, align 8
  %91 = load ptr, ptr %7, align 8
  %92 = getelementptr inbounds %struct.h5tool_link_info_t, ptr %91, i32 0, i32 1
  %93 = load ptr, ptr %92, align 8
  %94 = load ptr, ptr %7, align 8
  %95 = getelementptr inbounds %struct.h5tool_link_info_t, ptr %94, i32 0, i32 4
  %96 = getelementptr inbounds %struct.H5L_info2_t, ptr %95, i32 0, i32 4
  %97 = load i64, ptr %96, align 8
  %98 = call i32 @H5Lget_val(i64 noundef %89, ptr noundef %90, ptr noundef %93, i64 noundef %97, i64 noundef 0)
  %99 = icmp slt i32 %98, 0
  br i1 %99, label %100, label %111

100:                                              ; preds = %88
  %101 = load ptr, ptr %7, align 8
  %102 = getelementptr inbounds %struct.h5tool_link_info_t, ptr %101, i32 0, i32 5
  %103 = getelementptr inbounds %struct.h5tool_opt_t, ptr %102, i32 0, i32 1
  %104 = load i32, ptr %103, align 4
  %105 = icmp eq i32 %104, 1
  br i1 %105, label %106, label %108

106:                                              ; preds = %100
  %107 = load ptr, ptr %6, align 8
  call void (ptr, ...) @parallel_print(ptr noundef @.str.17, ptr noundef %107)
  br label %108

108:                                              ; preds = %106, %100
  br label %109

109:                                              ; preds = %108
  store i32 -1, ptr %13, align 4
  br label %221

110:                                              ; No predecessors!
  br label %111

111:                                              ; preds = %110, %88
  %112 = load ptr, ptr %7, align 8
  %113 = getelementptr inbounds %struct.h5tool_link_info_t, ptr %112, i32 0, i32 4
  %114 = getelementptr inbounds %struct.H5L_info2_t, ptr %113, i32 0, i32 0
  %115 = load i32, ptr %114, align 8
  %116 = icmp eq i32 %115, 64
  br i1 %116, label %117, label %149

117:                                              ; preds = %111
  %118 = call i32 @H5open()
  %119 = load i64, ptr @H5P_CLS_FILE_ACCESS_ID_g, align 8
  %120 = call i64 @H5Pcreate(i64 noundef %119)
  store i64 %120, ptr %11, align 8
  %121 = icmp slt i64 %120, 0
  br i1 %121, label %122, label %125

122:                                              ; preds = %117
  br label %123

123:                                              ; preds = %122
  store i32 -1, ptr %13, align 4
  br label %221

124:                                              ; No predecessors!
  br label %125

125:                                              ; preds = %124, %117
  %126 = load i64, ptr %11, align 8
  %127 = call i32 @H5Pset_fapl_sec2(i64 noundef %126)
  %128 = icmp slt i32 %127, 0
  br i1 %128, label %129, label %132

129:                                              ; preds = %125
  br label %130

130:                                              ; preds = %129
  store i32 -1, ptr %13, align 4
  br label %221

131:                                              ; No predecessors!
  br label %132

132:                                              ; preds = %131, %125
  %133 = call i32 @H5open()
  %134 = load i64, ptr @H5P_CLS_LINK_ACCESS_ID_g, align 8
  %135 = call i64 @H5Pcreate(i64 noundef %134)
  store i64 %135, ptr %12, align 8
  %136 = icmp slt i64 %135, 0
  br i1 %136, label %137, label %140

137:                                              ; preds = %132
  br label %138

138:                                              ; preds = %137
  store i32 -1, ptr %13, align 4
  br label %221

139:                                              ; No predecessors!
  br label %140

140:                                              ; preds = %139, %132
  %141 = load i64, ptr %12, align 8
  %142 = load i64, ptr %11, align 8
  %143 = call i32 @H5Pset_elink_fapl(i64 noundef %141, i64 noundef %142)
  %144 = icmp slt i32 %143, 0
  br i1 %144, label %145, label %148

145:                                              ; preds = %140
  br label %146

146:                                              ; preds = %145
  store i32 -1, ptr %13, align 4
  br label %221

147:                                              ; No predecessors!
  br label %148

148:                                              ; preds = %147, %140
  br label %149

149:                                              ; preds = %148, %111
  %150 = load i8, ptr %8, align 1
  %151 = trunc i8 %150 to i1
  br i1 %151, label %152, label %217

152:                                              ; preds = %149
  %153 = load i64, ptr %5, align 8
  %154 = load ptr, ptr %6, align 8
  %155 = load i64, ptr %12, align 8
  %156 = call i32 @H5Oexists_by_name(i64 noundef %153, ptr noundef %154, i64 noundef %155)
  store i32 %156, ptr %9, align 4
  %157 = load i32, ptr %9, align 4
  %158 = icmp eq i32 %157, 0
  br i1 %158, label %159, label %162

159:                                              ; preds = %152
  br label %160

160:                                              ; preds = %159
  store i32 0, ptr %13, align 4
  br label %221

161:                                              ; No predecessors!
  br label %169

162:                                              ; preds = %152
  %163 = load i32, ptr %9, align 4
  %164 = icmp slt i32 %163, 0
  br i1 %164, label %165, label %168

165:                                              ; preds = %162
  br label %166

166:                                              ; preds = %165
  store i32 -1, ptr %13, align 4
  br label %221

167:                                              ; No predecessors!
  br label %168

168:                                              ; preds = %167, %162
  br label %169

169:                                              ; preds = %168, %161
  %170 = load i64, ptr %5, align 8
  %171 = load ptr, ptr %6, align 8
  %172 = load i64, ptr %12, align 8
  %173 = call i32 @H5Oget_info_by_name3(i64 noundef %170, ptr noundef %171, ptr noundef %10, i32 noundef 1, i64 noundef %172)
  %174 = icmp slt i32 %173, 0
  br i1 %174, label %175, label %186

175:                                              ; preds = %169
  %176 = load ptr, ptr %7, align 8
  %177 = getelementptr inbounds %struct.h5tool_link_info_t, ptr %176, i32 0, i32 5
  %178 = getelementptr inbounds %struct.h5tool_opt_t, ptr %177, i32 0, i32 1
  %179 = load i32, ptr %178, align 4
  %180 = icmp eq i32 %179, 1
  br i1 %180, label %181, label %183

181:                                              ; preds = %175
  %182 = load ptr, ptr %6, align 8
  call void (ptr, ...) @parallel_print(ptr noundef @.str.18, ptr noundef %182)
  br label %183

183:                                              ; preds = %181, %175
  br label %184

184:                                              ; preds = %183
  store i32 -1, ptr %13, align 4
  br label %221

185:                                              ; No predecessors!
  br label %186

186:                                              ; preds = %185, %169
  %187 = getelementptr inbounds %struct.H5O_info2_t, ptr %10, i32 0, i32 2
  %188 = load i32, ptr %187, align 8
  %189 = icmp slt i32 %188, 0
  br i1 %189, label %194, label %190

190:                                              ; preds = %186
  %191 = getelementptr inbounds %struct.H5O_info2_t, ptr %10, i32 0, i32 2
  %192 = load i32, ptr %191, align 8
  %193 = icmp sge i32 %192, 4
  br i1 %193, label %194, label %205

194:                                              ; preds = %190, %186
  %195 = load ptr, ptr %7, align 8
  %196 = getelementptr inbounds %struct.h5tool_link_info_t, ptr %195, i32 0, i32 5
  %197 = getelementptr inbounds %struct.h5tool_opt_t, ptr %196, i32 0, i32 1
  %198 = load i32, ptr %197, align 4
  %199 = icmp eq i32 %198, 1
  br i1 %199, label %200, label %202

200:                                              ; preds = %194
  %201 = load ptr, ptr %6, align 8
  call void (ptr, ...) @parallel_print(ptr noundef @.str.19, ptr noundef %201)
  br label %202

202:                                              ; preds = %200, %194
  br label %203

203:                                              ; preds = %202
  store i32 -1, ptr %13, align 4
  br label %221

204:                                              ; No predecessors!
  br label %205

205:                                              ; preds = %204, %190
  %206 = load ptr, ptr %7, align 8
  %207 = getelementptr inbounds %struct.h5tool_link_info_t, ptr %206, i32 0, i32 2
  %208 = getelementptr inbounds %struct.H5O_info2_t, ptr %10, i32 0, i32 1
  call void @llvm.memcpy.p0.p0.i64(ptr align 8 %207, ptr align 8 %208, i64 16, i1 false)
  %209 = getelementptr inbounds %struct.H5O_info2_t, ptr %10, i32 0, i32 2
  %210 = load i32, ptr %209, align 8
  %211 = load ptr, ptr %7, align 8
  %212 = getelementptr inbounds %struct.h5tool_link_info_t, ptr %211, i32 0, i32 0
  store i32 %210, ptr %212, align 8
  %213 = getelementptr inbounds %struct.H5O_info2_t, ptr %10, i32 0, i32 0
  %214 = load i64, ptr %213, align 8
  %215 = load ptr, ptr %7, align 8
  %216 = getelementptr inbounds %struct.h5tool_link_info_t, ptr %215, i32 0, i32 3
  store i64 %214, ptr %216, align 8
  br label %220

217:                                              ; preds = %149
  %218 = load ptr, ptr %7, align 8
  %219 = getelementptr inbounds %struct.h5tool_link_info_t, ptr %218, i32 0, i32 0
  store i32 -1, ptr %219, align 8
  br label %220

220:                                              ; preds = %217, %205
  store i32 1, ptr %13, align 4
  br label %221

221:                                              ; preds = %220, %203, %184, %166, %160, %146, %138, %130, %123, %109, %86, %66, %57, %39, %23
  %222 = load i64, ptr %11, align 8
  %223 = icmp ne i64 %222, 0
  br i1 %223, label %224, label %227

224:                                              ; preds = %221
  %225 = load i64, ptr %11, align 8
  %226 = call i32 @H5Pclose(i64 noundef %225)
  br label %227

227:                                              ; preds = %224, %221
  %228 = load i64, ptr %12, align 8
  %229 = icmp ne i64 %228, 0
  br i1 %229, label %230, label %233

230:                                              ; preds = %227
  %231 = load i64, ptr %12, align 8
  %232 = call i32 @H5Pclose(i64 noundef %231)
  br label %233

233:                                              ; preds = %230, %227
  %234 = load i32, ptr %13, align 4
  ret i32 %234
}